TN:
SF:/home/matic/Documents/Master 2. godina/VS/AnalizaProjekta/2024_Analysis_Sudoku-Solver/external/Sudoku-Solver/sudokusolver.cpp
FN:17,20,_ZN12SudokuSolverD0Ev
FN:17,20,_ZN12SudokuSolverD2Ev
FN:23,51,_ZN12SudokuSolver9isAllowedERSt6vectorIS0_IiSaIiEESaIS2_EEiii
FN:53,83,_ZN12SudokuSolver11solvesudokuERSt6vectorIS0_IiSaIiEESaIS2_EEii
FN:7,15,_ZN12SudokuSolverC2EP7QWidget
FN:85,144,_ZN12SudokuSolver11solveSudokuEv
FNDA:0,_ZN12SudokuSolverD0Ev
FNDA:8,_ZN12SudokuSolverD2Ev
FNDA:38728,_ZN12SudokuSolver9isAllowedERSt6vectorIS0_IiSaIiEESaIS2_EEiii
FNDA:4329,_ZN12SudokuSolver11solvesudokuERSt6vectorIS0_IiSaIiEESaIS2_EEii
FNDA:8,_ZN12SudokuSolverC2EP7QWidget
FNDA:0,_ZN12SudokuSolver11solveSudokuEv
FNF:6
FNH:4
DA:7,8
DA:9,8
DA:11,8
DA:14,8
DA:15,8
DA:17,8
DA:19,8
DA:20,8
DA:23,38728
DA:25,263509
DA:26,245487
DA:32,112193
DA:33,106433
DA:39,5760
DA:40,5760
DA:42,20384
DA:43,61281
DA:44,46657
DA:53,4329
DA:55,7109
DA:60,7107
DA:61,470
DA:64,6637
DA:67,6637
DA:68,2310
DA:71,42999
DA:72,38723
DA:73,4326
DA:74,4326
DA:75,4326
DA:78,4275
DA:85,0
DA:88,0
DA:90,0
DA:92,0
DA:93,0
DA:94,0
DA:96,0
DA:97,0
DA:99,0
DA:100,0
DA:101,0
DA:102,0
DA:104,0
DA:106,0
DA:107,0
DA:108,0
DA:115,0
DA:116,0
DA:117,0
DA:118,0
DA:119,0
DA:120,0
DA:126,0
DA:127,0
DA:129,0
DA:131,0
DA:132,0
DA:133,0
DA:135,0
DA:136,0
DA:142,0
DA:144,0
LF:63
LH:31
end_of_record
TN:
SF:/home/matic/Documents/Master 2. godina/VS/AnalizaProjekta/2024_Analysis_Sudoku-Solver/external/Sudoku-Solver/sudokusolver.h
FNF:0
FNH:0
LF:0
LH:0
end_of_record
TN:
SF:/home/matic/Documents/Master 2. godina/VS/AnalizaProjekta/2024_Analysis_Sudoku-Solver/external/Sudoku-Solver/ui_sudokusolver.h
FN:117,639,_ZN15Ui_SudokuSolver7setupUiEP11QMainWindow
FN:641,646,_ZN15Ui_SudokuSolver13retranslateUiEP11QMainWindow
FNDA:8,_ZN15Ui_SudokuSolver7setupUiEP11QMainWindow
FNDA:8,_ZN15Ui_SudokuSolver13retranslateUiEP11QMainWindow
FNF:2
FNH:2
DA:117,8
DA:119,8
DA:120,16
DA:121,8
DA:122,8
DA:123,8
DA:124,8
DA:125,8
DA:126,8
DA:127,8
DA:128,8
DA:129,8
DA:130,8
DA:131,8
DA:132,8
DA:133,8
DA:134,8
DA:135,8
DA:136,8
DA:138,8
DA:140,8
DA:141,8
DA:142,8
DA:144,8
DA:146,8
DA:147,8
DA:148,8
DA:150,8
DA:152,8
DA:153,8
DA:154,8
DA:156,8
DA:158,8
DA:159,8
DA:160,8
DA:162,8
DA:164,8
DA:165,8
DA:166,8
DA:168,8
DA:170,8
DA:171,8
DA:172,8
DA:174,8
DA:176,8
DA:177,8
DA:178,8
DA:180,8
DA:182,8
DA:183,8
DA:184,8
DA:186,8
DA:188,8
DA:189,8
DA:190,8
DA:192,8
DA:194,8
DA:195,8
DA:196,8
DA:198,8
DA:200,8
DA:201,8
DA:202,8
DA:204,8
DA:206,8
DA:207,8
DA:208,8
DA:210,8
DA:212,8
DA:213,8
DA:214,8
DA:216,8
DA:218,8
DA:219,8
DA:220,8
DA:222,8
DA:224,8
DA:225,8
DA:226,8
DA:228,8
DA:230,8
DA:231,8
DA:232,8
DA:234,8
DA:236,8
DA:237,8
DA:238,8
DA:240,8
DA:242,8
DA:243,8
DA:244,8
DA:246,8
DA:248,8
DA:249,8
DA:250,8
DA:252,8
DA:254,8
DA:255,8
DA:256,8
DA:258,8
DA:260,8
DA:261,8
DA:262,8
DA:264,8
DA:266,8
DA:267,8
DA:268,8
DA:270,8
DA:272,8
DA:273,8
DA:274,8
DA:276,8
DA:278,8
DA:279,8
DA:280,8
DA:282,8
DA:284,8
DA:285,8
DA:286,8
DA:288,8
DA:290,8
DA:291,8
DA:292,8
DA:294,8
DA:296,8
DA:297,8
DA:298,8
DA:300,8
DA:302,8
DA:303,8
DA:304,8
DA:306,8
DA:308,8
DA:309,8
DA:310,8
DA:312,8
DA:314,8
DA:315,8
DA:316,8
DA:318,8
DA:320,8
DA:321,8
DA:322,8
DA:324,8
DA:326,8
DA:327,8
DA:328,8
DA:330,8
DA:332,8
DA:333,8
DA:334,8
DA:336,8
DA:338,8
DA:339,8
DA:340,8
DA:342,8
DA:344,8
DA:345,8
DA:346,8
DA:348,8
DA:350,8
DA:351,8
DA:352,8
DA:354,8
DA:356,8
DA:357,8
DA:358,8
DA:360,8
DA:362,8
DA:363,8
DA:364,8
DA:366,8
DA:368,8
DA:369,8
DA:370,8
DA:372,8
DA:374,8
DA:375,8
DA:376,8
DA:378,8
DA:380,8
DA:381,8
DA:382,8
DA:384,8
DA:386,8
DA:387,8
DA:388,8
DA:390,8
DA:392,8
DA:393,8
DA:394,8
DA:396,8
DA:398,8
DA:399,8
DA:400,8
DA:402,8
DA:404,8
DA:405,8
DA:406,8
DA:408,8
DA:410,8
DA:411,8
DA:412,8
DA:414,8
DA:416,8
DA:417,8
DA:418,8
DA:420,8
DA:422,8
DA:423,8
DA:424,8
DA:426,8
DA:428,8
DA:429,8
DA:430,8
DA:432,8
DA:434,8
DA:435,8
DA:436,8
DA:438,8
DA:440,8
DA:441,8
DA:442,8
DA:443,8
DA:445,8
DA:447,8
DA:448,8
DA:449,8
DA:451,8
DA:453,8
DA:454,8
DA:455,8
DA:457,8
DA:459,8
DA:460,8
DA:461,8
DA:463,8
DA:465,8
DA:466,8
DA:467,8
DA:469,8
DA:471,8
DA:472,8
DA:473,8
DA:475,8
DA:477,8
DA:478,8
DA:479,8
DA:481,8
DA:483,8
DA:484,8
DA:485,8
DA:487,8
DA:489,8
DA:490,8
DA:491,8
DA:493,8
DA:495,8
DA:496,8
DA:497,8
DA:499,8
DA:501,8
DA:502,8
DA:503,8
DA:505,8
DA:507,8
DA:508,8
DA:509,8
DA:511,8
DA:513,8
DA:514,8
DA:515,8
DA:517,8
DA:519,8
DA:520,8
DA:521,8
DA:523,8
DA:525,8
DA:526,8
DA:527,8
DA:529,8
DA:531,8
DA:532,8
DA:533,8
DA:535,8
DA:537,8
DA:538,8
DA:539,8
DA:541,8
DA:543,8
DA:544,8
DA:545,8
DA:547,8
DA:549,8
DA:550,8
DA:551,8
DA:553,8
DA:555,8
DA:556,8
DA:557,8
DA:559,8
DA:561,8
DA:562,8
DA:563,8
DA:565,8
DA:567,8
DA:568,8
DA:569,8
DA:571,8
DA:573,8
DA:574,8
DA:575,8
DA:577,8
DA:579,8
DA:580,8
DA:581,8
DA:583,8
DA:585,8
DA:586,8
DA:587,8
DA:589,8
DA:591,8
DA:592,8
DA:593,8
DA:595,8
DA:597,8
DA:598,8
DA:599,8
DA:601,8
DA:603,8
DA:604,8
DA:605,8
DA:607,8
DA:609,8
DA:610,8
DA:611,8
DA:613,8
DA:615,8
DA:616,8
DA:617,8
DA:619,8
DA:621,8
DA:622,8
DA:623,8
DA:624,8
DA:625,8
DA:626,8
DA:627,8
DA:628,8
DA:629,8
DA:630,8
DA:631,8
DA:632,8
DA:633,8
DA:634,8
DA:636,8
DA:638,8
DA:639,8
DA:641,8
DA:643,8
DA:644,8
DA:645,8
DA:646,8
LF:363
LH:363
end_of_record
TN:
SF:/home/matic/Documents/Master 2. godina/VS/AnalizaProjekta/2024_Analysis_Sudoku-Solver/unit_tests/build/SolverUnitTests.moc
FN:127,130,_ZNK15SolverUnitTests10metaObjectEv
FN:132,138,_ZN15SolverUnitTests11qt_metacastEPKc
FN:140,155,_ZN15SolverUnitTests11qt_metacallEN11QMetaObject4CallEiPPv
FN:91,109,_ZN15SolverUnitTests18qt_static_metacallEP7QObjectN11QMetaObject4CallEiPPv
FNDA:16,_ZNK15SolverUnitTests10metaObjectEv
FNDA:0,_ZN15SolverUnitTests11qt_metacastEPKc
FNDA:0,_ZN15SolverUnitTests11qt_metacallEN11QMetaObject4CallEiPPv
FNDA:8,_ZN15SolverUnitTests18qt_static_metacallEP7QObjectN11QMetaObject4CallEiPPv
FNF:4
FNH:2
DA:91,8
DA:93,8
DA:94,8
DA:95,8
DA:96,8
DA:97,1
DA:98,1
DA:99,1
DA:100,1
DA:101,1
DA:102,1
DA:103,1
DA:104,1
DA:108,8
DA:109,8
DA:127,16
DA:129,16
DA:132,0
DA:134,0
DA:135,0
DA:137,0
DA:140,0
DA:142,0
DA:143,0
DA:145,0
DA:146,0
DA:147,0
DA:148,0
DA:149,0
DA:150,0
DA:151,0
DA:152,0
LF:32
LH:17
end_of_record
TN:
SF:/home/matic/Documents/Master 2. godina/VS/AnalizaProjekta/2024_Analysis_Sudoku-Solver/unit_tests/build/moc_sudokusolver.cpp
FN:105,120,_ZN12SudokuSolver11qt_metacallEN11QMetaObject4CallEiPPv
FN:63,74,_ZN12SudokuSolver18qt_static_metacallEP7QObjectN11QMetaObject4CallEiPPv
FN:92,95,_ZNK12SudokuSolver10metaObjectEv
FN:97,103,_ZN12SudokuSolver11qt_metacastEPKc
FNDA:0,_ZN12SudokuSolver11qt_metacallEN11QMetaObject4CallEiPPv
FNDA:0,_ZN12SudokuSolver18qt_static_metacallEP7QObjectN11QMetaObject4CallEiPPv
FNDA:16,_ZNK12SudokuSolver10metaObjectEv
FNDA:0,_ZN12SudokuSolver11qt_metacastEPKc
FNF:4
FNH:1
DA:63,0
DA:65,0
DA:66,0
DA:67,0
DA:68,0
DA:69,0
DA:73,0
DA:74,0
DA:92,16
DA:94,16
DA:97,0
DA:99,0
DA:100,0
DA:102,0
DA:105,0
DA:107,0
DA:108,0
DA:110,0
DA:111,0
DA:112,0
DA:113,0
DA:114,0
DA:115,0
DA:116,0
DA:117,0
LF:25
LH:2
end_of_record
TN:
SF:/home/matic/Documents/Master 2. godina/VS/AnalizaProjekta/2024_Analysis_Sudoku-Solver/unit_tests/tests/SolverUnitTests.cpp
FN:116,133,_ZN15SolverUnitTests29validPlacementShouldBeAllowedEv
FN:134,152,_ZN15SolverUnitTests25validPuzzleShouldBeSolvedEv
FN:154,161,_ZN15SolverUnitTests37alreadySolvedPuzzleShouldRemainSolvedEv
FN:162,178,_ZN15SolverUnitTests33unsolvablePuzzleShouldReturnFalseEv
FN:179,179,main
FN:21,33,_ZL12solvedPuzzlev
FN:34,58,_ZN15SolverUnitTests50validInitialNumberShouldBeAllowedButCurrentlyFailsEv
FN:60,76,_ZN15SolverUnitTests30duplicateInRowShouldBeRejectedEv
FN:78,95,_ZN15SolverUnitTests33duplicateInColumnShouldBeRejectedEv
FN:97,114,_ZN15SolverUnitTests30duplicateInBoxShouldBeRejectedEv
FNDA:1,_ZN15SolverUnitTests29validPlacementShouldBeAllowedEv
FNDA:1,_ZN15SolverUnitTests25validPuzzleShouldBeSolvedEv
FNDA:1,_ZN15SolverUnitTests37alreadySolvedPuzzleShouldRemainSolvedEv
FNDA:1,_ZN15SolverUnitTests33unsolvablePuzzleShouldReturnFalseEv
FNDA:1,main
FNDA:3,_ZL12solvedPuzzlev
FNDA:1,_ZN15SolverUnitTests50validInitialNumberShouldBeAllowedButCurrentlyFailsEv
FNDA:1,_ZN15SolverUnitTests30duplicateInRowShouldBeRejectedEv
FNDA:1,_ZN15SolverUnitTests33duplicateInColumnShouldBeRejectedEv
FNDA:1,_ZN15SolverUnitTests30duplicateInBoxShouldBeRejectedEv
FNF:10
FNH:10
DA:8,0
DA:21,3
DA:22,3
DA:32,30
DA:33,6
DA:34,1
DA:36,1
DA:38,1
DA:48,10
DA:55,1
DA:56,1
DA:58,3
DA:60,1
DA:62,1
DA:63,1
DA:73,10
DA:75,1
DA:76,3
DA:78,1
DA:79,1
DA:82,1
DA:92,10
DA:93,1
DA:95,3
DA:97,1
DA:98,1
DA:101,1
DA:111,10
DA:112,1
DA:114,3
DA:116,1
DA:117,1
DA:120,1
DA:130,10
DA:131,1
DA:133,3
DA:134,1
DA:135,1
DA:138,1
DA:148,10
DA:149,1
DA:150,1
DA:152,3
DA:154,1
DA:155,1
DA:157,1
DA:159,1
DA:160,1
DA:161,1
DA:162,1
DA:163,1
DA:165,1
DA:175,10
DA:176,1
DA:178,3
DA:179,1
LF:56
LH:55
end_of_record
TN:
SF:/home/matic/Qt/6.2.2/gcc_64/include/QtCore/qarraydata.h
FNF:0
FNH:0
DA:92,736
DA:94,736
DA:157,8
DA:160,8
DA:161,8
LF:5
LH:5
end_of_record
TN:
SF:/home/matic/Qt/6.2.2/gcc_64/include/QtCore/qarraydataops.h
FNF:0
FNH:0
DA:134,8
LF:1
LH:1
end_of_record
TN:
SF:/home/matic/Qt/6.2.2/gcc_64/include/QtCore/qarraydatapointer.h
FN:127,133,_ZN17QArrayDataPointerIDsED2Ev
FN:326,326,_ZN17QArrayDataPointerIDsE5derefEv
FNDA:744,_ZN17QArrayDataPointerIDsED2Ev
FNDA:744,_ZN17QArrayDataPointerIDsE5derefEv
FNF:2
FNH:2
DA:112,8
DA:127,744
DA:129,744
DA:130,8
DA:131,8
DA:133,744
DA:135,0
DA:137,0
DA:326,744
LF:9
LH:7
end_of_record
TN:
SF:/home/matic/Qt/6.2.2/gcc_64/include/QtCore/qatomic.h
FNF:0
FNH:0
DA:64,8
DA:166,8
LF:2
LH:2
end_of_record
TN:
SF:/home/matic/Qt/6.2.2/gcc_64/include/QtCore/qatomic_cxx11.h
FNF:0
FNH:0
DA:285,736
DA:287,736
LF:2
LH:2
end_of_record
TN:
SF:/home/matic/Qt/6.2.2/gcc_64/include/QtCore/qbasicatomic.h
FNF:0
FNH:0
DA:102,736
DA:208,8
LF:2
LH:2
end_of_record
TN:
SF:/home/matic/Qt/6.2.2/gcc_64/include/QtCore/qbytearrayview.h
FN:153,158,_ZN14QByteArrayView21lengthHelperCharArrayEPKcm
FN:186,188,_ZN14QByteArrayViewC2IPKcLb1EEERKT_
FNDA:712,_ZN14QByteArrayView21lengthHelperCharArrayEPKcm
FNDA:0,_ZN14QByteArrayViewC2IPKcLb1EEERKT_
FNF:2
FNH:1
DA:142,0
DA:144,0
DA:153,712
DA:155,712
DA:156,712
DA:157,712
DA:163,712
DA:164,712
DA:173,712
DA:174,712
DA:175,712
DA:186,0
DA:188,0
DA:203,712
DA:204,712
LF:15
LH:11
end_of_record
TN:
SF:/home/matic/Qt/6.2.2/gcc_64/include/QtCore/qdebug.h
FN:113,113,_ZN6QDebug10maybeSpaceEv
FN:127,127,_ZN6QDebuglsEb
FN:133,133,_ZN6QDebuglsEi
FN:141,141,_ZN6QDebuglsEPKc
FNDA:0,_ZN6QDebug10maybeSpaceEv
FNDA:0,_ZN6QDebuglsEb
FNDA:0,_ZN6QDebuglsEi
FNDA:0,_ZN6QDebuglsEPKc
FNF:4
FNH:0
DA:113,0
DA:127,0
DA:133,0
DA:141,0
LF:4
LH:0
end_of_record
TN:
SF:/home/matic/Qt/6.2.2/gcc_64/include/QtCore/qflags.h
FNF:0
FNH:0
DA:108,672
DA:109,0
LF:2
LH:1
end_of_record
TN:
SF:/home/matic/Qt/6.2.2/gcc_64/include/QtCore/qlogging.h
FNF:0
FNH:0
DA:74,0
DA:75,0
DA:97,0
DA:98,0
LF:4
LH:0
end_of_record
TN:
SF:/home/matic/Qt/6.2.2/gcc_64/include/QtCore/qmetatype.h
FNF:0
FNH:0
DA:444,0
LF:1
LH:0
end_of_record
TN:
SF:/home/matic/Qt/6.2.2/gcc_64/include/QtCore/qobject.h
FN:217,244,_ZN7QObject7connectIM15QAbstractButtonFvbEM12SudokuSolverFvvEEEN11QMetaObject10ConnectionEPKN9QtPrivate15FunctionPointerIT_E6ObjectESB_PKNSA_IT0_E6ObjectESG_N2Qt14ConnectionTypeE
FNDA:8,_ZN7QObject7connectIM15QAbstractButtonFvbEM12SudokuSolverFvvEEEN11QMetaObject10ConnectionEPKN9QtPrivate15FunctionPointerIT_E6ObjectESB_PKNSA_IT0_E6ObjectESG_N2Qt14ConnectionTypeE
FNF:1
FNH:1
DA:217,8
DA:235,8
DA:236,8
DA:237,0
DA:241,8
DA:243,8
DA:448,0
DA:453,0
LF:8
LH:5
end_of_record
TN:
SF:/home/matic/Qt/6.2.2/gcc_64/include/QtCore/qobject_impl.h
FNF:0
FNH:0
DA:75,0
LF:1
LH:0
end_of_record
TN:
SF:/home/matic/Qt/6.2.2/gcc_64/include/QtCore/qobjectdefs.h
FNF:0
FNH:0
DA:168,0
DA:169,0
LF:2
LH:0
end_of_record
TN:
SF:/home/matic/Qt/6.2.2/gcc_64/include/QtCore/qobjectdefs_impl.h
FN:151,153,_ZN9QtPrivate11FunctorCallINS_11IndexesListIJEEENS_4ListIJEEEvM12SudokuSolverFvvEE4callES7_PS5_PPv
FN:388,402,_ZN9QtPrivate11QSlotObjectIM12SudokuSolverFvvENS_4ListIJEEEvE4implEiPNS_15QSlotObjectBaseEP7QObjectPPvPb
FNDA:0,_ZN9QtPrivate11FunctorCallINS_11IndexesListIJEEENS_4ListIJEEEvM12SudokuSolverFvvEE4callES7_PS5_PPv
FNDA:8,_ZN9QtPrivate11QSlotObjectIM12SudokuSolverFvvENS_4ListIJEEEvE4implEiPNS_15QSlotObjectBaseEP7QObjectPPvPb
FNF:2
FNH:1
DA:88,0
DA:151,0
DA:152,0
DA:153,0
DA:184,0
DA:185,0
DA:368,8
DA:377,8
DA:384,8
DA:388,8
DA:390,8
DA:391,8
DA:392,8
DA:394,0
DA:395,0
DA:396,0
DA:397,0
DA:398,0
DA:399,0
DA:400,8
DA:402,8
DA:404,8
LF:22
LH:10
end_of_record
TN:
SF:/home/matic/Qt/6.2.2/gcc_64/include/QtCore/qrect.h
FNF:0
FNH:0
DA:182,32
DA:183,32
LF:2
LH:2
end_of_record
TN:
SF:/home/matic/Qt/6.2.2/gcc_64/include/QtCore/qscopedpointer.h
FNF:0
FNH:0
DA:125,32
DA:127,32
LF:2
LH:2
end_of_record
TN:
SF:/home/matic/Qt/6.2.2/gcc_64/include/QtCore/qsize.h
FNF:0
FNH:0
DA:146,8
LF:1
LH:1
end_of_record
TN:
SF:/home/matic/Qt/6.2.2/gcc_64/include/QtCore/qstring.h
FN:1131,1144,_ZN7QString17toIntegral_helperIiEET_11QStringViewPbi
FN:963,965,_ZN7QStringC2EPKc
FNDA:0,_ZN7QString17toIntegral_helperIiEET_11QStringViewPbi
FNDA:0,_ZN7QStringC2EPKc
FNF:2
FNH:0
DA:410,0
DA:843,0
DA:844,0
DA:963,0
DA:964,0
DA:965,0
DA:1073,0
DA:1131,0
DA:1137,0
DA:1138,0
DA:1139,0
DA:1140,0
DA:1143,0
DA:1213,8
DA:1214,8
DA:1302,744
LF:16
LH:3
end_of_record
TN:
SF:/home/matic/Qt/6.2.2/gcc_64/include/QtCore/qstringview.h
FNF:0
FNH:0
DA:183,0
DA:195,0
DA:196,0
DA:197,0
DA:220,0
DA:221,0
LF:6
LH:0
end_of_record
TN:
SF:/home/matic/Qt/6.2.2/gcc_64/include/QtTest/qtestcase.h
FN:482,487,_ZN5QTest8qCompareISt6vectorIS1_IiSaIiEESaIS3_EES5_EEbRKT_RKT0_PKcSD_SD_i
FNDA:2,_ZN5QTest8qCompareISt6vectorIS1_IiSaIiEESaIS3_EES5_EEbRKT_RKT0_PKcSD_SD_i
FNF:1
FNH:1
DA:482,2
DA:485,2
DA:486,2
LF:3
LH:3
end_of_record
TN:
SF:/home/matic/Qt/6.2.2/gcc_64/include/QtWidgets/qwidget.h
FNF:0
FNH:0
DA:845,8
DA:846,8
LF:2
LH:2
end_of_record
TN:
SF:/usr/include/c++/13/atomic
FNF:0
FNH:0
DA:833,8
LF:1
LH:1
end_of_record
TN:
SF:/usr/include/c++/13/bits/alloc_traits.h
FNF:0
FNH:0
DA:481,190
DA:482,190
DA:516,190
DA:517,190
DA:587,90
DA:588,90
DA:945,190
DA:948,190
LF:8
LH:8
end_of_record
TN:
SF:/usr/include/c++/13/bits/allocator.h
FNF:0
FNH:0
DA:163,20
DA:167,290
DA:168,290
DA:184,210
LF:4
LH:4
end_of_record
TN:
SF:/usr/include/c++/13/bits/atomic_base.h
FNF:0
FNH:0
DA:362,8
DA:409,736
DA:410,736
LF:3
LH:3
end_of_record
TN:
SF:/usr/include/c++/13/bits/char_traits.h
FNF:0
FNH:0
DA:393,0
DA:396,0
DA:399,0
DA:403,712
DA:405,712
DA:408,712
DA:411,712
LF:7
LH:4
end_of_record
TN:
SF:/usr/include/c++/13/bits/new_allocator.h
FN:126,152,_ZNSt15__new_allocatorISt6vectorIiSaIiEEE8allocateEmPKv
FN:126,152,_ZNSt15__new_allocatorIiE8allocateEmPKv
FN:156,173,_ZNSt15__new_allocatorISt6vectorIiSaIiEEE10deallocateEPS2_m
FN:156,173,_ZNSt15__new_allocatorIiE10deallocateEPim
FNDA:10,_ZNSt15__new_allocatorISt6vectorIiSaIiEEE8allocateEmPKv
FNDA:180,_ZNSt15__new_allocatorIiE8allocateEmPKv
FNDA:10,_ZNSt15__new_allocatorISt6vectorIiSaIiEEE10deallocateEPS2_m
FNDA:180,_ZNSt15__new_allocatorIiE10deallocateEPim
FNF:4
FNH:4
DA:88,20
DA:92,290
DA:104,210
DA:126,190
DA:134,190
DA:138,0
DA:139,0
DA:140,0
DA:151,190
DA:156,190
DA:172,190
LF:11
LH:8
end_of_record
TN:
SF:/usr/include/c++/13/bits/stl_algobase.h
FN:1167,1173,_ZNSt7__equalILb0EE5equalIPKSt6vectorIiSaIiEES6_EEbT_S7_T0_
FN:1182,1187,_ZNSt7__equalILb1EE5equalIiEEbPKT_S4_S4_
FN:433,442,_ZNSt11__copy_moveILb0ELb1ESt26random_access_iterator_tagE8__copy_mIKiiEEPT0_PT_S7_S5_
FNDA:2,_ZNSt7__equalILb0EE5equalIPKSt6vectorIiSaIiEES6_EEbT_S7_T0_
FNDA:18,_ZNSt7__equalILb1EE5equalIiEEbPKT_S4_S4_
FNDA:180,_ZNSt11__copy_moveILb0ELb1ESt26random_access_iterator_tagE8__copy_mIKiiEEPT0_PT_S7_S5_
FNF:3
FNH:3
DA:93,18
DA:108,18
DA:397,0
DA:398,0
DA:433,180
DA:435,180
DA:436,180
DA:437,180
DA:438,0
DA:440,0
DA:441,180
DA:497,180
DA:506,180
DA:532,180
DA:533,180
DA:538,180
DA:540,360
DA:624,90
DA:633,90
DA:926,0
DA:929,0
DA:930,0
DA:931,0
DA:976,0
DA:977,0
DA:1117,0
DA:1123,0
DA:1128,0
DA:1152,0
DA:1157,0
DA:1167,2
DA:1169,20
DA:1170,18
DA:1182,18
DA:1184,18
DA:1185,18
DA:1213,20
DA:1216,20
DA:1219,20
DA:1225,20
DA:1227,20
DA:1547,20
LF:42
LH:27
end_of_record
TN:
SF:/usr/include/c++/13/bits/stl_construct.h
FN:182,197,_ZSt8_DestroyIPSt6vectorIiSaIiEEEvT_S4_
FN:182,197,_ZSt8_DestroyIPiEvT_S1_
FNDA:10,_ZSt8_DestroyIPSt6vectorIiSaIiEEEvT_S4_
FNDA:180,_ZSt8_DestroyIPiEvT_S1_
FNF:2
FNH:2
DA:109,90
DA:119,90
DA:120,90
DA:146,90
DA:151,90
DA:160,10
DA:162,100
DA:163,90
DA:182,190
DA:196,10
DA:197,190
LF:11
LH:11
end_of_record
TN:
SF:/usr/include/c++/13/bits/stl_iterator.h
FNF:0
FNH:0
DA:1076,20
DA:1077,90
LF:2
LH:2
end_of_record
TN:
SF:/usr/include/c++/13/bits/stl_iterator_base_funcs.h
FN:184,196,_ZSt9__advanceIPKclEvRT_T0_St26random_access_iterator_tag
FNDA:0,_ZSt9__advanceIPKclEvRT_T0_St26random_access_iterator_tag
FNF:1
FNH:0
DA:100,812
DA:106,812
DA:148,812
DA:151,812
DA:184,0
DA:190,0
DA:191,0
DA:192,0
DA:193,0
DA:195,0
DA:196,0
DA:220,0
DA:223,0
DA:224,0
DA:232,0
DA:237,0
DA:238,0
LF:17
LH:4
end_of_record
TN:
SF:/usr/include/c++/13/bits/stl_uninitialized.h
FN:113,128,_ZSt16__do_uninit_copyIPKSt6vectorIiSaIiEEPS2_ET0_T_S7_S6_
FN:261,275,_ZSt18__do_uninit_fill_nIPSt6vectorIiSaIiEEmS2_ET_S4_T0_RKT1_
FNDA:10,_ZSt16__do_uninit_copyIPKSt6vectorIiSaIiEEPS2_ET0_T_S7_S6_
FNDA:0,_ZSt18__do_uninit_fill_nIPSt6vectorIiSaIiEEmS2_ET_S4_T0_RKT1_
FNF:2
FNH:1
DA:113,10
DA:116,10
DA:119,100
DA:120,90
DA:121,10
DA:123,0
DA:125,0
DA:126,0
DA:135,10
DA:137,10
DA:145,180
DA:147,180
DA:163,190
DA:174,190
DA:181,190
DA:185,190
DA:261,0
DA:263,0
DA:266,0
DA:267,0
DA:268,0
DA:270,0
DA:272,0
DA:273,0
DA:282,0
DA:284,0
DA:292,0
DA:294,0
DA:312,0
DA:319,0
DA:327,0
DA:366,190
DA:373,190
DA:465,0
DA:472,0
LF:35
LH:15
end_of_record
TN:
SF:/usr/include/c++/13/bits/stl_vector.h
FN:1687,1698,_ZNSt6vectorIS_IiSaIiEESaIS1_EE19_M_range_initializeIPKS1_EEvT_S7_St20forward_iterator_tag
FN:1687,1698,_ZNSt6vectorIiSaIiEE19_M_range_initializeIPKiEEvT_S5_St20forward_iterator_tag
FN:2040,2042,_ZSteqISt6vectorIiSaIiEESaIS2_EEbRKS0_IT_T0_ES8_
FN:2040,2042,_ZSteqIiSaIiEEbRKSt6vectorIT_T0_ES6_
FN:367,371,_ZNSt12_Vector_baseISt6vectorIiSaIiEESaIS2_EED2Ev
FN:367,371,_ZNSt12_Vector_baseIiSaIiEED2Ev
FN:396,401,_ZNSt12_Vector_baseISt6vectorIiSaIiEESaIS2_EE17_M_create_storageEm
FN:396,401,_ZNSt12_Vector_baseIiSaIiEE17_M_create_storageEm
FN:569,572,_ZNSt6vectorIS_IiSaIiEESaIS1_EEC2EmRKS1_RKS2_
FN:569,572,_ZNSt6vectorIiSaIiEEC2EmRKiRKS0_
FN:601,609,_ZNSt6vectorIiSaIiEEC2ERKS1_
FN:678,684,_ZNSt6vectorIS_IiSaIiEESaIS1_EEC2ESt16initializer_listIS1_ERKS2_
FN:678,684,_ZNSt6vectorIiSaIiEEC2ESt16initializer_listIiERKS0_
FN:733,738,_ZNSt6vectorIS_IiSaIiEESaIS1_EED2Ev
FN:733,738,_ZNSt6vectorIiSaIiEED2Ev
FNDA:10,_ZNSt6vectorIS_IiSaIiEESaIS1_EE19_M_range_initializeIPKS1_EEvT_S7_St20forward_iterator_tag
FNDA:90,_ZNSt6vectorIiSaIiEE19_M_range_initializeIPKiEEvT_S5_St20forward_iterator_tag
FNDA:2,_ZSteqISt6vectorIiSaIiEESaIS2_EEbRKS0_IT_T0_ES8_
FNDA:18,_ZSteqIiSaIiEEbRKSt6vectorIT_T0_ES6_
FNDA:10,_ZNSt12_Vector_baseISt6vectorIiSaIiEESaIS2_EED2Ev
FNDA:180,_ZNSt12_Vector_baseIiSaIiEED2Ev
FNDA:0,_ZNSt12_Vector_baseISt6vectorIiSaIiEESaIS2_EE17_M_create_storageEm
FNDA:90,_ZNSt12_Vector_baseIiSaIiEE17_M_create_storageEm
FNDA:0,_ZNSt6vectorIS_IiSaIiEESaIS1_EEC2EmRKS1_RKS2_
FNDA:0,_ZNSt6vectorIiSaIiEEC2EmRKiRKS0_
FNDA:90,_ZNSt6vectorIiSaIiEEC2ERKS1_
FNDA:10,_ZNSt6vectorIS_IiSaIiEESaIS1_EEC2ESt16initializer_listIS1_ERKS2_
FNDA:90,_ZNSt6vectorIiSaIiEEC2ESt16initializer_listIiERKS0_
FNDA:10,_ZNSt6vectorIS_IiSaIiEESaIS1_EED2Ev
FNDA:180,_ZNSt6vectorIiSaIiEED2Ev
FNF:15
FNH:12
DA:99,190
DA:100,190
DA:133,190
DA:146,190
DA:147,190
DA:301,280
DA:302,480
DA:306,90
DA:307,90
DA:321,100
DA:322,100
DA:333,90
DA:334,90
DA:335,90
DA:367,190
DA:369,380
DA:370,190
DA:371,190
DA:378,190
DA:381,190
DA:386,190
DA:389,190
DA:390,190
DA:396,90
DA:398,90
DA:399,90
DA:400,90
DA:401,90
DA:569,0
DA:571,0
DA:572,0
DA:601,90
DA:603,90
DA:605,90
DA:606,180
DA:608,90
DA:609,90
DA:678,100
DA:680,100
DA:682,100
DA:683,100
DA:684,100
DA:733,190
DA:735,380
DA:736,190
DA:738,190
DA:883,110
DA:884,110
DA:903,110
DA:904,90
DA:992,110
DA:993,90
DA:1126,413815
DA:1129,413815
DA:1687,100
DA:1690,100
DA:1692,100
DA:1693,100
DA:1694,100
DA:1695,200
DA:1697,100
DA:1698,100
DA:1704,0
DA:1706,0
DA:1707,0
DA:1708,0
DA:1907,100
DA:1909,100
DA:1910,0
DA:2040,20
DA:2041,20
DA:2042,20
LF:72
LH:64
end_of_record
TN:
SF:/usr/include/c++/13/ext/alloc_traits.h
FNF:0
FNH:0
DA:97,90
DA:98,90
LF:2
LH:2
end_of_record
TN:
SF:/usr/include/c++/13/initializer_list
FNF:0
FNH:0
DA:69,100
DA:73,100
DA:77,100
LF:3
LH:3
end_of_record
